target datalayout = "e-m:e-p270:32:32-p271:32:32-p272:64:64-i64:64-i128:128-f80:128-n8:16:32:64-S128"
target triple = "x86_64-pc-linux-gnu"

%"struct.duckdb_libpgquery::base_yy_extra_type" = type { %"struct.duckdb_libpgquery::core_yy_extra_type", i8, i32, %"union.duckdb_libpgquery::core_YYSTYPE", i32, ptr, i8, ptr }
%"struct.duckdb_libpgquery::core_yy_extra_type" = type { ptr, i64, ptr, i32, i32, i8, i8, ptr, i32, i32, i32, ptr, i32, i8, i8 }
%"union.duckdb_libpgquery::core_YYSTYPE" = type { ptr }

; Function Attrs: mustprogress uwtable
define hidden noundef i32 @_ZN17duckdb_libpgquery10base_yylexEPNS_7YYSTYPEEPiPv(ptr noundef %0, ptr noundef %1, ptr noundef %2) #0 {
  %4 = alloca i32, align 4
  %5 = alloca ptr, align 8
  %6 = alloca ptr, align 8
  %7 = alloca ptr, align 8
  %8 = alloca ptr, align 8
  %9 = alloca i32, align 4
  %10 = alloca i32, align 4
  %11 = alloca i32, align 4
  %12 = alloca i32, align 4
  %13 = alloca i32, align 4
  store ptr %0, ptr %5, align 8, !tbaa !49
  store ptr %1, ptr %6, align 8, !tbaa !51
  store ptr %2, ptr %7, align 8, !tbaa !8
  call void @llvm.lifetime.start.p0(i64 8, ptr %8) #14
  %14 = load ptr, ptr %7, align 8, !tbaa !8
  %15 = load ptr, ptr %14, align 8, !tbaa !53
  store ptr %15, ptr %8, align 8, !tbaa !53
  call void @llvm.lifetime.start.p0(i64 4, ptr %9) #14
  call void @llvm.lifetime.start.p0(i64 4, ptr %10) #14
  call void @llvm.lifetime.start.p0(i64 4, ptr %11) #14
  call void @llvm.lifetime.start.p0(i64 4, ptr %12) #14
  %16 = load ptr, ptr %8, align 8, !tbaa !53
  %17 = getelementptr inbounds nuw %"struct.duckdb_libpgquery::base_yy_extra_type", ptr %16, i32 0, i32 1
  %18 = load i8, ptr %17, align 8, !tbaa !9, !range !55, !noundef !56
  %19 = trunc i8 %18 to i1
  br i1 %19, label %20, label %39

20:                                               ; preds = %3
  %21 = load ptr, ptr %8, align 8, !tbaa !53
  %22 = getelementptr inbounds nuw %"struct.duckdb_libpgquery::base_yy_extra_type", ptr %21, i32 0, i32 2
  %23 = load i32, ptr %22, align 4, !tbaa !57
  store i32 %23, ptr %9, align 4, !tbaa !17
  %24 = load ptr, ptr %8, align 8, !tbaa !53
  %25 = getelementptr inbounds nuw %"struct.duckdb_libpgquery::base_yy_extra_type", ptr %24, i32 0, i32 3
  %26 = load ptr, ptr %5, align 8, !tbaa !49
  call void @llvm.memcpy.p0.p0.i64(ptr align 8 %26, ptr align 8 %25, i64 8, i1 false), !tbaa.struct !58
  %27 = load ptr, ptr %8, align 8, !tbaa !53
  %28 = getelementptr inbounds nuw %"struct.duckdb_libpgquery::base_yy_extra_type", ptr %27, i32 0, i32 4
  %29 = load i32, ptr %28, align 8, !tbaa !60
  %30 = load ptr, ptr %6, align 8, !tbaa !51
  store i32 %29, ptr %30, align 4, !tbaa !17
  %31 = load ptr, ptr %8, align 8, !tbaa !53
  %32 = getelementptr inbounds nuw %"struct.duckdb_libpgquery::base_yy_extra_type", ptr %31, i32 0, i32 6
  %33 = load i8, ptr %32, align 8, !tbaa !61
  %34 = load ptr, ptr %8, align 8, !tbaa !53
  %35 = getelementptr inbounds nuw %"struct.duckdb_libpgquery::base_yy_extra_type", ptr %34, i32 0, i32 5
  %36 = load ptr, ptr %35, align 8, !tbaa !62
  store i8 %33, ptr %36, align 1, !tbaa !59
  %37 = load ptr, ptr %8, align 8, !tbaa !53
  %38 = getelementptr inbounds nuw %"struct.duckdb_libpgquery::base_yy_extra_type", ptr %37, i32 0, i32 1
  store i8 0, ptr %38, align 8, !tbaa !9
  br label %44

39:                                               ; preds = %3
  %40 = load ptr, ptr %5, align 8, !tbaa !49
  %41 = load ptr, ptr %6, align 8, !tbaa !51
  %42 = load ptr, ptr %7, align 8, !tbaa !8
  %43 = call noundef i32 @_ZN17duckdb_libpgquery10core_yylexEPNS_12core_YYSTYPEEPiPv(ptr noundef %40, ptr noundef %41, ptr noundef %42)
  store i32 %43, ptr %9, align 4, !tbaa !17
  br label %44

44:                                               ; preds = %39, %20
  %45 = load i32, ptr %9, align 4, !tbaa !17
  switch i32 %45, label %49 [
    i32 530, label %46
    i32 537, label %47
    i32 735, label %48
  ]

46:                                               ; preds = %44
  store i32 3, ptr %11, align 4, !tbaa !17
  br label %51

47:                                               ; preds = %44
  store i32 5, ptr %11, align 4, !tbaa !17
  br label %51

48:                                               ; preds = %44
  store i32 4, ptr %11, align 4, !tbaa !17
  br label %51

49:                                               ; preds = %44
  %50 = load i32, ptr %9, align 4, !tbaa !17
  store i32 %50, ptr %4, align 4
  store i32 1, ptr %13, align 4
  br label %107

51:                                               ; preds = %48, %47, %46
  %52 = load ptr, ptr %8, align 8, !tbaa !53
  %53 = getelementptr inbounds nuw %"struct.duckdb_libpgquery::base_yy_extra_type", ptr %52, i32 0, i32 0
  %54 = getelementptr inbounds nuw %"struct.duckdb_libpgquery::core_yy_extra_type", ptr %53, i32 0, i32 0
  %55 = load ptr, ptr %54, align 8, !tbaa !63
  %56 = load ptr, ptr %6, align 8, !tbaa !51
  %57 = load i32, ptr %56, align 4, !tbaa !17
  %58 = sext i32 %57 to i64
  %59 = getelementptr inbounds i8, ptr %55, i64 %58
  %60 = load i32, ptr %11, align 4, !tbaa !17
  %61 = sext i32 %60 to i64
  %62 = getelementptr inbounds i8, ptr %59, i64 %61
  %63 = load ptr, ptr %8, align 8, !tbaa !53
  %64 = getelementptr inbounds nuw %"struct.duckdb_libpgquery::base_yy_extra_type", ptr %63, i32 0, i32 5
  store ptr %62, ptr %64, align 8, !tbaa !62
  %65 = load ptr, ptr %6, align 8, !tbaa !51
  %66 = load i32, ptr %65, align 4, !tbaa !17
  store i32 %66, ptr %12, align 4, !tbaa !17
  %67 = load ptr, ptr %8, align 8, !tbaa !53
  %68 = getelementptr inbounds nuw %"struct.duckdb_libpgquery::base_yy_extra_type", ptr %67, i32 0, i32 3
  %69 = load ptr, ptr %6, align 8, !tbaa !51
  %70 = load ptr, ptr %7, align 8, !tbaa !8
  %71 = call noundef i32 @_ZN17duckdb_libpgquery10core_yylexEPNS_12core_YYSTYPEEPiPv(ptr noundef %68, ptr noundef %69, ptr noundef %70)
  store i32 %71, ptr %10, align 4, !tbaa !17
  %72 = load i32, ptr %10, align 4, !tbaa !17
  %73 = load ptr, ptr %8, align 8, !tbaa !53
  %74 = getelementptr inbounds nuw %"struct.duckdb_libpgquery::base_yy_extra_type", ptr %73, i32 0, i32 2
  store i32 %72, ptr %74, align 4, !tbaa !57
  %75 = load ptr, ptr %6, align 8, !tbaa !51
  %76 = load i32, ptr %75, align 4, !tbaa !17
  %77 = load ptr, ptr %8, align 8, !tbaa !53
  %78 = getelementptr inbounds nuw %"struct.duckdb_libpgquery::base_yy_extra_type", ptr %77, i32 0, i32 4
  store i32 %76, ptr %78, align 8, !tbaa !60
  %79 = load i32, ptr %12, align 4, !tbaa !17
  %80 = load ptr, ptr %6, align 8, !tbaa !51
  store i32 %79, ptr %80, align 4, !tbaa !17
  %81 = load ptr, ptr %8, align 8, !tbaa !53
  %82 = getelementptr inbounds nuw %"struct.duckdb_libpgquery::base_yy_extra_type", ptr %81, i32 0, i32 5
  %83 = load ptr, ptr %82, align 8, !tbaa !62
  %84 = load i8, ptr %83, align 1, !tbaa !59
  %85 = load ptr, ptr %8, align 8, !tbaa !53
  %86 = getelementptr inbounds nuw %"struct.duckdb_libpgquery::base_yy_extra_type", ptr %85, i32 0, i32 6
  store i8 %84, ptr %86, align 8, !tbaa !61
  %87 = load ptr, ptr %8, align 8, !tbaa !53
  %88 = getelementptr inbounds nuw %"struct.duckdb_libpgquery::base_yy_extra_type", ptr %87, i32 0, i32 5
  %89 = load ptr, ptr %88, align 8, !tbaa !62
  store i8 0, ptr %89, align 1, !tbaa !59
  %90 = load ptr, ptr %8, align 8, !tbaa !53
  %91 = getelementptr inbounds nuw %"struct.duckdb_libpgquery::base_yy_extra_type", ptr %90, i32 0, i32 1
  store i8 1, ptr %91, align 8, !tbaa !9
  %92 = load i32, ptr %9, align 4, !tbaa !17
  switch i32 %92, label %105 [
    i32 530, label %93
    i32 537, label %97
    i32 735, label %101
  ]

93:                                               ; preds = %51
  %94 = load i32, ptr %10, align 4, !tbaa !17
  switch i32 %94, label %96 [
    i32 308, label %95
    i32 454, label %95
    i32 492, label %95
    i32 449, label %95
    i32 649, label %95
  ]

95:                                               ; preds = %93, %93, %93, %93, %93
  store i32 757, ptr %9, align 4, !tbaa !17
  br label %96

96:                                               ; preds = %93, %95
  br label %105

97:                                               ; preds = %51
  %98 = load i32, ptr %10, align 4, !tbaa !17
  switch i32 %98, label %100 [
    i32 419, label %99
    i32 486, label %99
  ]

99:                                               ; preds = %97, %97
  store i32 758, ptr %9, align 4, !tbaa !17
  br label %100

100:                                              ; preds = %97, %99
  br label %105

101:                                              ; preds = %51
  %102 = load i32, ptr %10, align 4, !tbaa !17
  switch i32 %102, label %104 [
    i32 684, label %103
    i32 552, label %103
  ]

103:                                              ; preds = %101, %101
  store i32 759, ptr %9, align 4, !tbaa !17
  br label %104

104:                                              ; preds = %101, %103
  br label %105

105:                                              ; preds = %51, %104, %100, %96
  %106 = load i32, ptr %9, align 4, !tbaa !17
  store i32 %106, ptr %4, align 4
  store i32 1, ptr %13, align 4
  br label %107

107:                                              ; preds = %105, %49
  call void @llvm.lifetime.end.p0(i64 4, ptr %12) #14
  call void @llvm.lifetime.end.p0(i64 4, ptr %11) #14
  call void @llvm.lifetime.end.p0(i64 4, ptr %10) #14
  call void @llvm.lifetime.end.p0(i64 4, ptr %9) #14
  call void @llvm.lifetime.end.p0(i64 8, ptr %8) #14
  %108 = load i32, ptr %4, align 4
  ret i32 %108
}