; Function Attrs: mustprogress uwtable
define hidden noundef i32 @_ZN17duckdb_libpgquery10base_yylexEPNS_7YYSTYPEEPiPv(ptr noundef %0, ptr noundef %1, ptr noundef %2) local_unnamed_addr #0 {
  %4 = load ptr, ptr %2, align 8, !tbaa !43
  %5 = getelementptr inbounds nuw i8, ptr %4, i64 80
  %6 = load i8, ptr %5, align 8, !tbaa !3, !range !45, !noundef !46
  %7 = trunc nuw i8 %6 to i1
  br i1 %7, label %8, label %19

8:                                                ; preds = %3
  %9 = getelementptr inbounds nuw i8, ptr %4, i64 84
  %10 = load i32, ptr %9, align 4, !tbaa !47
  %11 = getelementptr inbounds nuw i8, ptr %4, i64 88
  %12 = load i64, ptr %11, align 8, !tbaa !22
  store i64 %12, ptr %0, align 8, !tbaa !22
  %13 = getelementptr inbounds nuw i8, ptr %4, i64 96
  %14 = load i32, ptr %13, align 8, !tbaa !48
  store i32 %14, ptr %1, align 4, !tbaa !37
  %15 = getelementptr inbounds nuw i8, ptr %4, i64 112
  %16 = load i8, ptr %15, align 8, !tbaa !49
  %17 = getelementptr inbounds nuw i8, ptr %4, i64 104
  %18 = load ptr, ptr %17, align 8, !tbaa !50
  store i8 %16, ptr %18, align 1, !tbaa !22
  store i8 0, ptr %5, align 8, !tbaa !3
  br label %21

19:                                               ; preds = %3
  %20 = tail call noundef i32 @_ZN17duckdb_libpgquery10core_yylexEPNS_12core_YYSTYPEEPiPv(ptr noundef %0, ptr noundef %1, ptr noundef nonnull %2)
  br label %21

21:                                               ; preds = %19, %8
  %.039 = phi i32 [ %10, %8 ], [ %20, %19 ]
  switch i32 %.039, label %45 [
    i32 530, label %24
    i32 537, label %22
    i32 735, label %23
  ]

22:                                               ; preds = %21
  br label %24

23:                                               ; preds = %21
  br label %24

24:                                               ; preds = %21, %23, %22
  %.038 = phi i64 [ 4, %23 ], [ 5, %22 ], [ 3, %21 ]
  %25 = load ptr, ptr %4, align 8, !tbaa !51
  %26 = load i32, ptr %1, align 4, !tbaa !37
  %27 = sext i32 %26 to i64
  %28 = getelementptr inbounds i8, ptr %25, i64 %27
  %29 = getelementptr inbounds nuw i8, ptr %28, i64 %.038
  %30 = getelementptr inbounds nuw i8, ptr %4, i64 104
  store ptr %29, ptr %30, align 8, !tbaa !50
  %31 = getelementptr inbounds nuw i8, ptr %4, i64 88
  %32 = tail call noundef i32 @_ZN17duckdb_libpgquery10core_yylexEPNS_12core_YYSTYPEEPiPv(ptr noundef nonnull %31, ptr noundef nonnull %1, ptr noundef nonnull %2)
  %33 = getelementptr inbounds nuw i8, ptr %4, i64 84
  store i32 %32, ptr %33, align 4, !tbaa !47
  %34 = load i32, ptr %1, align 4, !tbaa !37
  %35 = getelementptr inbounds nuw i8, ptr %4, i64 96
  store i32 %34, ptr %35, align 8, !tbaa !48
  store i32 %26, ptr %1, align 4, !tbaa !37
  %36 = load ptr, ptr %30, align 8, !tbaa !50
  %37 = load i8, ptr %36, align 1, !tbaa !22
  %38 = getelementptr inbounds nuw i8, ptr %4, i64 112
  store i8 %37, ptr %38, align 8, !tbaa !49
  store i8 0, ptr %36, align 1, !tbaa !22
  store i8 1, ptr %5, align 8, !tbaa !3
  switch i32 %.039, label %45 [
    i32 530, label %39
    i32 537, label %41
    i32 735, label %43
  ]

39:                                               ; preds = %24
  switch i32 %32, label %45 [
    i32 308, label %40
    i32 454, label %40
    i32 492, label %40
    i32 449, label %40
    i32 649, label %40
  ]

40:                                               ; preds = %39, %39, %39, %39, %39
  br label %45

41:                                               ; preds = %24
  %switch.selectcmp.case1 = icmp eq i32 %32, 419
  %switch.selectcmp.case2 = icmp eq i32 %32, 486
  %switch.selectcmp = or i1 %switch.selectcmp.case1, %switch.selectcmp.case2
  %42 = select i1 %switch.selectcmp, i32 758, i32 537
  br label %45

43:                                               ; preds = %24
  %switch.selectcmp.case140 = icmp eq i32 %32, 684
  %switch.selectcmp.case241 = icmp eq i32 %32, 552
  %switch.selectcmp42 = or i1 %switch.selectcmp.case140, %switch.selectcmp.case241
  %44 = select i1 %switch.selectcmp42, i32 759, i32 735
  br label %45

45:                                               ; preds = %24, %40, %39, %41, %43, %21
  %.0 = phi i32 [ %.039, %21 ], [ %.039, %24 ], [ 530, %39 ], [ 757, %40 ], [ %42, %41 ], [ %44, %43 ]
  ret i32 %.0
}